target datalayout = "e-m:e-p270:32:32-p271:32:32-p272:64:64-i64:64-i128:128-f80:128-n8:16:32:64-S128"
target triple = "x86_64-unknown-linux-gnu"

%struct.StructEntry = type { ptr, i32, [2 x ptr], [2 x ptr], ptr, [2 x i32], [2 x i32], ptr }

@struct_entries = external global ptr, align 8
@.str.592 = private unnamed_addr constant [104 x i8] c"/home/dtcxzyw/WorkSpace/Projects/compilers/llvm-opt-benchmark/bench/qemu/qemu/include/exec/user/thunk.h\00", align 1
@__func__.thunk_type_size = private unnamed_addr constant [16 x i8] c"thunk_type_size\00", align 1

; Function Attrs: nounwind sspstrong uwtable
define internal i32 @thunk_type_size(ptr noundef %type_ptr, i32 noundef %is_host) #0 {
entry:
  %retval = alloca i32, align 4
  %type_ptr.addr = alloca ptr, align 8
  %is_host.addr = alloca i32, align 4
  %type = alloca i32, align 4
  %size = alloca i32, align 4
  %se = alloca ptr, align 8
  store ptr %type_ptr, ptr %type_ptr.addr, align 8
  store i32 %is_host, ptr %is_host.addr, align 4
  %0 = load ptr, ptr %type_ptr.addr, align 8
  %1 = load i32, ptr %0, align 4
  store i32 %1, ptr %type, align 4
  %2 = load i32, ptr %type, align 4
  switch i32 %2, label %sw.default [
    i32 1, label %sw.bb
    i32 2, label %sw.bb1
    i32 3, label %sw.bb2
    i32 7, label %sw.bb3
    i32 8, label %sw.bb3
    i32 4, label %sw.bb4
    i32 5, label %sw.bb4
    i32 6, label %sw.bb4
    i32 9, label %sw.bb4
    i32 12, label %sw.bb5
    i32 10, label %sw.bb9
    i32 11, label %sw.bb10
  ]

sw.bb:                                            ; preds = %entry
  store i32 1, ptr %retval, align 4
  br label %sw.epilog

sw.bb1:                                           ; preds = %entry
  store i32 2, ptr %retval, align 4
  br label %sw.epilog

sw.bb2:                                           ; preds = %entry
  store i32 4, ptr %retval, align 4
  br label %sw.epilog

sw.bb3:                                           ; preds = %entry, %entry
  store i32 8, ptr %retval, align 4
  br label %sw.epilog

sw.bb4:                                           ; preds = %entry, %entry, %entry, %entry
  %3 = load i32, ptr %is_host.addr, align 4
  %tobool = icmp ne i32 %3, 0
  br i1 %tobool, label %if.then, label %if.else

if.then:                                          ; preds = %sw.bb4
  store i32 8, ptr %retval, align 4
  br label %sw.epilog

if.else:                                          ; preds = %sw.bb4
  store i32 8, ptr %retval, align 4
  br label %sw.epilog

sw.bb5:                                           ; preds = %entry
  %4 = load i32, ptr %is_host.addr, align 4
  %tobool6 = icmp ne i32 %4, 0
  br i1 %tobool6, label %if.then7, label %if.else8

if.then7:                                         ; preds = %sw.bb5
  store i32 8, ptr %retval, align 4
  br label %sw.epilog

if.else8:                                         ; preds = %sw.bb5
  store i32 2, ptr %retval, align 4
  br label %sw.epilog

sw.bb9:                                           ; preds = %entry
  %5 = load ptr, ptr %type_ptr.addr, align 8
  %arrayidx = getelementptr i32, ptr %5, i64 1
  %6 = load i32, ptr %arrayidx, align 4
  store i32 %6, ptr %size, align 4
  %7 = load i32, ptr %size, align 4
  %8 = load ptr, ptr %type_ptr.addr, align 8
  %add.ptr = getelementptr i32, ptr %8, i64 2
  %9 = load i32, ptr %is_host.addr, align 4
  %call = call i32 @thunk_type_size_array(ptr noundef %add.ptr, i32 noundef %9)
  %mul = mul i32 %7, %call
  store i32 %mul, ptr %retval, align 4
  br label %sw.epilog

sw.bb10:                                          ; preds = %entry
  %10 = load ptr, ptr @struct_entries, align 8
  %11 = load ptr, ptr %type_ptr.addr, align 8
  %arrayidx11 = getelementptr i32, ptr %11, i64 1
  %12 = load i32, ptr %arrayidx11, align 4
  %idx.ext = zext i32 %12 to i64
  %add.ptr12 = getelementptr %struct.StructEntry, ptr %10, i64 %idx.ext
  store ptr %add.ptr12, ptr %se, align 8
  %13 = load ptr, ptr %se, align 8
  %size13 = getelementptr inbounds %struct.StructEntry, ptr %13, i32 0, i32 5
  %14 = load i32, ptr %is_host.addr, align 4
  %idxprom = sext i32 %14 to i64
  %arrayidx14 = getelementptr [2 x i32], ptr %size13, i64 0, i64 %idxprom
  %15 = load i32, ptr %arrayidx14, align 4
  store i32 %15, ptr %retval, align 4
  br label %sw.epilog

sw.default:                                       ; preds = %entry
  br label %do.body

do.body:                                          ; preds = %sw.default
  call void @g_assertion_message_expr(ptr noundef null, ptr noundef @.str.592, i32 noundef 141, ptr noundef @__func__.thunk_type_size, ptr noundef null) #19
  unreachable

do.end:                                           ; No predecessors!
  br label %sw.epilog

sw.epilog:                                        ; preds = %do.end, %sw.bb10, %sw.bb9, %if.else8, %if.then7, %if.else, %if.then, %sw.bb3, %sw.bb2, %sw.bb1, %sw.bb
  %16 = load i32, ptr %retval, align 4
  ret i32 %16
}