; Function Attrs: nounwind sspstrong uwtable
define internal fastcc i32 @thunk_type_size(ptr noundef %type_ptr) unnamed_addr #2 {
entry:
  %0 = load i32, ptr %type_ptr, align 4
  switch i32 %0, label %do.body [
    i32 1, label %sw.epilog
    i32 2, label %sw.bb1
    i32 3, label %sw.bb2
    i32 7, label %sw.bb3
    i32 8, label %sw.bb3
    i32 4, label %sw.bb4
    i32 5, label %sw.bb4
    i32 6, label %sw.bb4
    i32 9, label %sw.bb4
    i32 12, label %sw.bb1
    i32 10, label %sw.bb9
    i32 11, label %sw.bb10
  ]

sw.bb1:                                           ; preds = %entry, %entry
  br label %sw.epilog

sw.bb2:                                           ; preds = %entry
  br label %sw.epilog

sw.bb3:                                           ; preds = %entry, %entry
  br label %sw.epilog

sw.bb4:                                           ; preds = %entry, %entry, %entry, %entry
  br label %sw.epilog

sw.bb9:                                           ; preds = %entry
  %arrayidx = getelementptr i8, ptr %type_ptr, i64 4
  %1 = load i32, ptr %arrayidx, align 4
  %add.ptr = getelementptr i8, ptr %type_ptr, i64 8
  %call = tail call i32 @thunk_type_size_array(ptr noundef %add.ptr, i32 noundef 0) #27
  %mul = mul i32 %call, %1
  br label %sw.epilog

sw.bb10:                                          ; preds = %entry
  %2 = load ptr, ptr @struct_entries, align 8
  %arrayidx11 = getelementptr i8, ptr %type_ptr, i64 4
  %3 = load i32, ptr %arrayidx11, align 4
  %idx.ext = zext i32 %3 to i64
  %size13 = getelementptr %struct.StructEntry, ptr %2, i64 %idx.ext, i32 5
  %4 = load i32, ptr %size13, align 4
  br label %sw.epilog

do.body:                                          ; preds = %entry
  tail call void @g_assertion_message_expr(ptr noundef null, ptr noundef nonnull @.str.592, i32 noundef 141, ptr noundef nonnull @__func__.thunk_type_size, ptr noundef null) #28
  unreachable

sw.epilog:                                        ; preds = %entry, %sw.bb4, %sw.bb10, %sw.bb9, %sw.bb3, %sw.bb2, %sw.bb1
  %retval.0 = phi i32 [ %4, %sw.bb10 ], [ %mul, %sw.bb9 ], [ 8, %sw.bb4 ], [ 8, %sw.bb3 ], [ 4, %sw.bb2 ], [ 2, %sw.bb1 ], [ %0, %entry ]
  ret i32 %retval.0
}